target datalayout = "e-m:e-p270:32:32-p271:32:32-p272:64:64-i64:64-i128:128-f80:128-n8:16:32:64-S128"
target triple = "x86_64-pc-linux-gnu"

%struct._zend_alloc_globals = type { ptr }
%struct._zend_mm_heap = type { i32, ptr, i64, i64, [30 x ptr], i64, i64, i64, i32, ptr, ptr, ptr, i32, i32, i32, double, i32, i32, %struct.anon, ptr }
%struct.anon = type { ptr, ptr, ptr }
%struct._zend_mm_chunk = type { ptr, ptr, ptr, i32, i32, i32, [28 x i8], %struct._zend_mm_heap, [8 x i64], [512 x i32] }
%struct._zend_mm_huge_list = type { ptr, i64, ptr }

@alloc_globals = internal global %struct._zend_alloc_globals zeroinitializer, align 8

; Function Attrs: nounwind uwtable
define zeroext i1 @is_zend_ptr(ptr noundef %0) #0 {
  %2 = alloca i1, align 1
  %3 = alloca ptr, align 8
  %4 = alloca i64, align 8
  %5 = alloca ptr, align 8
  %6 = alloca ptr, align 8
  %7 = alloca ptr, align 8
  store ptr %0, ptr %3, align 8
  %8 = load ptr, ptr @alloc_globals, align 8
  %9 = getelementptr inbounds %struct._zend_mm_heap, ptr %8, i32 0, i32 0
  %10 = load i32, ptr %9, align 8
  %11 = icmp ne i32 %10, 0
  br i1 %11, label %12, label %32

12:                                               ; preds = %1
  %13 = load ptr, ptr @alloc_globals, align 8
  %14 = getelementptr inbounds %struct._zend_mm_heap, ptr %13, i32 0, i32 18
  %15 = getelementptr inbounds %struct.anon, ptr %14, i32 0, i32 0
  %16 = load ptr, ptr %15, align 8
  %17 = icmp eq ptr %16, @tracked_malloc
  br i1 %17, label %18, label %31

18:                                               ; preds = %12
  %19 = load ptr, ptr %3, align 8
  %20 = ptrtoint ptr %19 to i64
  %21 = lshr i64 %20, 3
  store i64 %21, ptr %4, align 8
  %22 = load ptr, ptr @alloc_globals, align 8
  %23 = getelementptr inbounds %struct._zend_mm_heap, ptr %22, i32 0, i32 19
  %24 = load ptr, ptr %23, align 8
  %25 = load i64, ptr %4, align 8
  %26 = call ptr @zend_hash_index_find(ptr noundef %24, i64 noundef %25)
  store ptr %26, ptr %5, align 8
  %27 = load ptr, ptr %5, align 8
  %28 = icmp ne ptr %27, null
  br i1 %28, label %29, label %30

29:                                               ; preds = %18
  store i1 true, ptr %2, align 1
  br label %96

30:                                               ; preds = %18
  br label %31

31:                                               ; preds = %30, %12
  store i1 false, ptr %2, align 1
  br label %96

32:                                               ; preds = %1
  %33 = load ptr, ptr @alloc_globals, align 8
  %34 = getelementptr inbounds %struct._zend_mm_heap, ptr %33, i32 0, i32 10
  %35 = load ptr, ptr %34, align 8
  %36 = icmp ne ptr %35, null
  br i1 %36, label %37, label %62

37:                                               ; preds = %32
  %38 = load ptr, ptr @alloc_globals, align 8
  %39 = getelementptr inbounds %struct._zend_mm_heap, ptr %38, i32 0, i32 10
  %40 = load ptr, ptr %39, align 8
  store ptr %40, ptr %6, align 8
  br label %41

41:                                               ; preds = %55, %37
  %42 = load ptr, ptr %3, align 8
  %43 = load ptr, ptr %6, align 8
  %44 = icmp uge ptr %42, %43
  br i1 %44, label %45, label %51

45:                                               ; preds = %41
  %46 = load ptr, ptr %3, align 8
  %47 = load ptr, ptr %6, align 8
  %48 = getelementptr inbounds i8, ptr %47, i64 2097152
  %49 = icmp ult ptr %46, %48
  br i1 %49, label %50, label %51

50:                                               ; preds = %45
  store i1 true, ptr %2, align 1
  br label %96

51:                                               ; preds = %45, %41
  %52 = load ptr, ptr %6, align 8
  %53 = getelementptr inbounds %struct._zend_mm_chunk, ptr %52, i32 0, i32 1
  %54 = load ptr, ptr %53, align 8
  store ptr %54, ptr %6, align 8
  br label %55

55:                                               ; preds = %51
  %56 = load ptr, ptr %6, align 8
  %57 = load ptr, ptr @alloc_globals, align 8
  %58 = getelementptr inbounds %struct._zend_mm_heap, ptr %57, i32 0, i32 10
  %59 = load ptr, ptr %58, align 8
  %60 = icmp ne ptr %56, %59
  br i1 %60, label %41, label %61

61:                                               ; preds = %55
  br label %62

62:                                               ; preds = %61, %32
  %63 = load ptr, ptr @alloc_globals, align 8
  %64 = getelementptr inbounds %struct._zend_mm_heap, ptr %63, i32 0, i32 9
  %65 = load ptr, ptr %64, align 8
  %66 = icmp ne ptr %65, null
  br i1 %66, label %67, label %95

67:                                               ; preds = %62
  %68 = load ptr, ptr @alloc_globals, align 8
  %69 = getelementptr inbounds %struct._zend_mm_heap, ptr %68, i32 0, i32 9
  %70 = load ptr, ptr %69, align 8
  store ptr %70, ptr %7, align 8
  br label %71

71:                                               ; preds = %88, %67
  %72 = load ptr, ptr %3, align 8
  %73 = load ptr, ptr %7, align 8
  %74 = icmp uge ptr %72, %73
  br i1 %74, label %75, label %84

75:                                               ; preds = %71
  %76 = load ptr, ptr %3, align 8
  %77 = load ptr, ptr %7, align 8
  %78 = load ptr, ptr %7, align 8
  %79 = getelementptr inbounds %struct._zend_mm_huge_list, ptr %78, i32 0, i32 1
  %80 = load i64, ptr %79, align 8
  %81 = getelementptr inbounds i8, ptr %77, i64 %80
  %82 = icmp ult ptr %76, %81
  br i1 %82, label %83, label %84

83:                                               ; preds = %75
  store i1 true, ptr %2, align 1
  br label %96

84:                                               ; preds = %75, %71
  %85 = load ptr, ptr %7, align 8
  %86 = getelementptr inbounds %struct._zend_mm_huge_list, ptr %85, i32 0, i32 2
  %87 = load ptr, ptr %86, align 8
  store ptr %87, ptr %7, align 8
  br label %88

88:                                               ; preds = %84
  %89 = load ptr, ptr %7, align 8
  %90 = load ptr, ptr @alloc_globals, align 8
  %91 = getelementptr inbounds %struct._zend_mm_heap, ptr %90, i32 0, i32 9
  %92 = load ptr, ptr %91, align 8
  %93 = icmp ne ptr %89, %92
  br i1 %93, label %71, label %94

94:                                               ; preds = %88
  br label %95

95:                                               ; preds = %94, %62
  store i1 false, ptr %2, align 1
  br label %96

96:                                               ; preds = %95, %83, %50, %31, %29
  %97 = load i1, ptr %2, align 1
  ret i1 %97
}